target datalayout = "e-m:e-p270:32:32-p271:32:32-p272:64:64-i64:64-i128:128-f80:128-n8:16:32:64-S128"
target triple = "x86_64-pc-linux-gnu"

%"class.std::shared_ptr" = type { %"class.std::__shared_ptr" }
%"class.std::__shared_ptr" = type { ptr, %"class.std::__shared_count" }
%"class.std::__shared_count" = type { ptr }
%"class.open_spiel::cliff_walking::CliffWalkingState" = type { %"class.open_spiel::State.base", i32, i32, i32, i32, i32, i32, [4 x i8] }
%"class.open_spiel::State.base" = type <{ ptr, %"class.std::shared_ptr", i32, i32, %"class.std::vector", i32 }>
%"class.std::vector" = type { %"struct.std::_Vector_base" }
%"struct.std::_Vector_base" = type { %"struct.std::_Vector_base<open_spiel::State::PlayerAction, std::allocator<open_spiel::State::PlayerAction>>::_Vector_impl" }
%"struct.std::_Vector_base<open_spiel::State::PlayerAction, std::allocator<open_spiel::State::PlayerAction>>::_Vector_impl" = type { %"struct.std::_Vector_base<open_spiel::State::PlayerAction, std::allocator<open_spiel::State::PlayerAction>>::_Vector_impl_data" }
%"struct.std::_Vector_base<open_spiel::State::PlayerAction, std::allocator<open_spiel::State::PlayerAction>>::_Vector_impl_data" = type { ptr, ptr, ptr }

; Function Attrs: mustprogress nounwind uwtable
define noundef zeroext i1 @_ZNK10open_spiel13cliff_walking17CliffWalkingState6IsGoalEii(ptr noundef nonnull align 8 dereferenceable(84) %0, i32 noundef %1, i32 noundef %2) #5 align 2 {
  %4 = alloca ptr, align 8
  %5 = alloca i32, align 4
  %6 = alloca i32, align 4
  store ptr %0, ptr %4, align 8
  store i32 %1, ptr %5, align 4
  store i32 %2, ptr %6, align 4
  %7 = load ptr, ptr %4, align 8
  %8 = load i32, ptr %5, align 4
  %9 = getelementptr inbounds nuw %"class.open_spiel::cliff_walking::CliffWalkingState", ptr %7, i32 0, i32 1
  %10 = load i32, ptr %9, align 4
  %11 = sub nsw i32 %10, 1
  %12 = icmp eq i32 %8, %11
  br i1 %12, label %13, label %19

13:                                               ; preds = %3
  %14 = load i32, ptr %6, align 4
  %15 = getelementptr inbounds nuw %"class.open_spiel::cliff_walking::CliffWalkingState", ptr %7, i32 0, i32 2
  %16 = load i32, ptr %15, align 8
  %17 = sub nsw i32 %16, 1
  %18 = icmp eq i32 %14, %17
  br label %19

19:                                               ; preds = %13, %3
  %20 = phi i1 [ false, %3 ], [ %18, %13 ]
  ret i1 %20
}