; Function Attrs: mustprogress nofree norecurse nosync nounwind willreturn memory(argmem: read) uwtable
define noundef zeroext i1 @_ZNK10open_spiel13cliff_walking17CliffWalkingState6IsGoalEii(ptr noundef nonnull readonly align 8 captures(none) dereferenceable(84) %0, i32 noundef %1, i32 noundef %2) local_unnamed_addr #8 align 2 {
  %4 = getelementptr inbounds nuw i8, ptr %0, i64 60
  %5 = load i32, ptr %4, align 4
  %6 = add nsw i32 %5, -1
  %7 = icmp eq i32 %1, %6
  %8 = getelementptr inbounds nuw i8, ptr %0, i64 64
  %9 = load i32, ptr %8, align 8
  %10 = add nsw i32 %9, -1
  %11 = icmp eq i32 %2, %10
  %12 = select i1 %7, i1 %11, i1 false
  ret i1 %12
}